target datalayout = "e-m:e-p270:32:32-p271:32:32-p272:64:64-i64:64-i128:128-f80:128-n8:16:32:64-S128"
target triple = "x86_64-pc-linux-gnu"

%struct.gz_state = type { %struct.gzFile_s, i32, i32, ptr, i32, i32, ptr, ptr, i32, i32, i64, i32, i32, i32, i32, i64, i32, i32, ptr, %struct.z_stream_s }
%struct.gzFile_s = type { i32, ptr, i64 }
%struct.z_stream_s = type { ptr, i32, i64, ptr, i32, i64, ptr, ptr, ptr, ptr, ptr, i32, i64, i64, i32 }

@.str = private unnamed_addr constant [37 x i8] c"requested length does not fit in int\00", align 1

; Function Attrs: nounwind uwtable
define internal i32 @gz_zero(ptr noundef %0, i64 noundef %1) #0 {
  %3 = alloca i32, align 4
  %4 = alloca ptr, align 8
  %5 = alloca i64, align 8
  %6 = alloca i32, align 4
  %7 = alloca i32, align 4
  %8 = alloca ptr, align 8
  %9 = alloca i32, align 4
  store ptr %0, ptr %4, align 8, !tbaa !8
  store i64 %1, ptr %5, align 8, !tbaa !41
  call void @llvm.lifetime.start.p0(i64 4, ptr %6) #10
  call void @llvm.lifetime.start.p0(i64 4, ptr %7) #10
  call void @llvm.lifetime.start.p0(i64 8, ptr %8) #10
  %10 = load ptr, ptr %4, align 8, !tbaa !8
  %11 = getelementptr inbounds nuw %struct.gz_state, ptr %10, i32 0, i32 19
  store ptr %11, ptr %8, align 8, !tbaa !11
  %12 = load ptr, ptr %8, align 8, !tbaa !11
  %13 = getelementptr inbounds nuw %struct.z_stream_s, ptr %12, i32 0, i32 1
  %14 = load i32, ptr %13, align 8, !tbaa !24
  %15 = icmp ne i32 %14, 0
  br i1 %15, label %16, label %21

16:                                               ; preds = %2
  %17 = load ptr, ptr %4, align 8, !tbaa !8
  %18 = call i32 @gz_comp(ptr noundef %17, i32 noundef 0)
  %19 = icmp eq i32 %18, -1
  br i1 %19, label %20, label %21

20:                                               ; preds = %16
  store i32 -1, ptr %3, align 4
  store i32 1, ptr %9, align 4
  br label %75

21:                                               ; preds = %16, %2
  store i32 1, ptr %6, align 4, !tbaa !9
  br label %22

22:                                               ; preds = %69, %21
  %23 = load i64, ptr %5, align 8, !tbaa !41
  %24 = icmp ne i64 %23, 0
  br i1 %24, label %25, label %74

25:                                               ; preds = %22
  %26 = load ptr, ptr %4, align 8, !tbaa !8
  %27 = getelementptr inbounds nuw %struct.gz_state, ptr %26, i32 0, i32 4
  %28 = load i32, ptr %27, align 8, !tbaa !21
  %29 = zext i32 %28 to i64
  %30 = load i64, ptr %5, align 8, !tbaa !41
  %31 = icmp sgt i64 %29, %30
  br i1 %31, label %32, label %35

32:                                               ; preds = %25
  %33 = load i64, ptr %5, align 8, !tbaa !41
  %34 = trunc i64 %33 to i32
  br label %39

35:                                               ; preds = %25
  %36 = load ptr, ptr %4, align 8, !tbaa !8
  %37 = getelementptr inbounds nuw %struct.gz_state, ptr %36, i32 0, i32 4
  %38 = load i32, ptr %37, align 8, !tbaa !21
  br label %39

39:                                               ; preds = %35, %32
  %40 = phi i32 [ %34, %32 ], [ %38, %35 ]
  store i32 %40, ptr %7, align 4, !tbaa !9
  %41 = load i32, ptr %6, align 4, !tbaa !9
  %42 = icmp ne i32 %41, 0
  br i1 %42, label %43, label %49

43:                                               ; preds = %39
  %44 = load ptr, ptr %4, align 8, !tbaa !8
  %45 = getelementptr inbounds nuw %struct.gz_state, ptr %44, i32 0, i32 6
  %46 = load ptr, ptr %45, align 8, !tbaa !25
  %47 = load i32, ptr %7, align 4, !tbaa !9
  %48 = zext i32 %47 to i64
  call void @llvm.memset.p0.i64(ptr align 1 %46, i8 0, i64 %48, i1 false)
  store i32 0, ptr %6, align 4, !tbaa !9
  br label %49

49:                                               ; preds = %43, %39
  %50 = load i32, ptr %7, align 4, !tbaa !9
  %51 = load ptr, ptr %8, align 8, !tbaa !11
  %52 = getelementptr inbounds nuw %struct.z_stream_s, ptr %51, i32 0, i32 1
  store i32 %50, ptr %52, align 8, !tbaa !24
  %53 = load ptr, ptr %4, align 8, !tbaa !8
  %54 = getelementptr inbounds nuw %struct.gz_state, ptr %53, i32 0, i32 6
  %55 = load ptr, ptr %54, align 8, !tbaa !25
  %56 = load ptr, ptr %8, align 8, !tbaa !11
  %57 = getelementptr inbounds nuw %struct.z_stream_s, ptr %56, i32 0, i32 0
  store ptr %55, ptr %57, align 8, !tbaa !26
  %58 = load i32, ptr %7, align 4, !tbaa !9
  %59 = zext i32 %58 to i64
  %60 = load ptr, ptr %4, align 8, !tbaa !8
  %61 = getelementptr inbounds nuw %struct.gz_state, ptr %60, i32 0, i32 0
  %62 = getelementptr inbounds nuw %struct.gzFile_s, ptr %61, i32 0, i32 2
  %63 = load i64, ptr %62, align 8, !tbaa !27
  %64 = add nsw i64 %63, %59
  store i64 %64, ptr %62, align 8, !tbaa !27
  %65 = load ptr, ptr %4, align 8, !tbaa !8
  %66 = call i32 @gz_comp(ptr noundef %65, i32 noundef 0)
  %67 = icmp eq i32 %66, -1
  br i1 %67, label %68, label %69

68:                                               ; preds = %49
  store i32 -1, ptr %3, align 4
  store i32 1, ptr %9, align 4
  br label %75

69:                                               ; preds = %49
  %70 = load i32, ptr %7, align 4, !tbaa !9
  %71 = zext i32 %70 to i64
  %72 = load i64, ptr %5, align 8, !tbaa !41
  %73 = sub nsw i64 %72, %71
  store i64 %73, ptr %5, align 8, !tbaa !41
  br label %22, !llvm.loop !42

74:                                               ; preds = %22
  store i32 0, ptr %3, align 4
  store i32 1, ptr %9, align 4
  br label %75

75:                                               ; preds = %74, %68, %20
  call void @llvm.lifetime.end.p0(i64 8, ptr %8) #10
  call void @llvm.lifetime.end.p0(i64 4, ptr %7) #10
  call void @llvm.lifetime.end.p0(i64 4, ptr %6) #10
  %76 = load i32, ptr %3, align 4
  ret i32 %76
}

; Function Attrs: nounwind uwtable
define i32 @MOZ_Z_gzwrite(ptr noundef %0, ptr noundef %1, i32 noundef %2) #0 {
  %4 = alloca i32, align 4
  %5 = alloca ptr, align 8
  %6 = alloca ptr, align 8
  %7 = alloca i32, align 4
  %8 = alloca i32, align 4
  %9 = alloca ptr, align 8
  %10 = alloca ptr, align 8
  %11 = alloca i32, align 4
  %12 = alloca i32, align 4
  %13 = alloca i32, align 4
  store ptr %0, ptr %5, align 8, !tbaa !3
  store ptr %1, ptr %6, align 8, !tbaa !8
  store i32 %2, ptr %7, align 4, !tbaa !9
  call void @llvm.lifetime.start.p0(i64 4, ptr %8) #10
  %14 = load i32, ptr %7, align 4, !tbaa !9
  store i32 %14, ptr %8, align 4, !tbaa !9
  call void @llvm.lifetime.start.p0(i64 8, ptr %9) #10
  call void @llvm.lifetime.start.p0(i64 8, ptr %10) #10
  %15 = load ptr, ptr %5, align 8, !tbaa !3
  %16 = icmp eq ptr %15, null
  br i1 %16, label %17, label %18

17:                                               ; preds = %3
  store i32 0, ptr %4, align 4
  store i32 1, ptr %11, align 4
  br label %186

18:                                               ; preds = %3
  %19 = load ptr, ptr %5, align 8, !tbaa !3
  store ptr %19, ptr %9, align 8, !tbaa !8
  %20 = load ptr, ptr %9, align 8, !tbaa !8
  %21 = getelementptr inbounds nuw %struct.gz_state, ptr %20, i32 0, i32 19
  store ptr %21, ptr %10, align 8, !tbaa !11
  %22 = load ptr, ptr %9, align 8, !tbaa !8
  %23 = getelementptr inbounds nuw %struct.gz_state, ptr %22, i32 0, i32 1
  %24 = load i32, ptr %23, align 8, !tbaa !13
  %25 = icmp ne i32 %24, 31153
  br i1 %25, label %31, label %26

26:                                               ; preds = %18
  %27 = load ptr, ptr %9, align 8, !tbaa !8
  %28 = getelementptr inbounds nuw %struct.gz_state, ptr %27, i32 0, i32 17
  %29 = load i32, ptr %28, align 4, !tbaa !20
  %30 = icmp ne i32 %29, 0
  br i1 %30, label %31, label %32

31:                                               ; preds = %26, %18
  store i32 0, ptr %4, align 4
  store i32 1, ptr %11, align 4
  br label %186

32:                                               ; preds = %26
  %33 = load i32, ptr %7, align 4, !tbaa !9
  %34 = icmp slt i32 %33, 0
  br i1 %34, label %35, label %37

35:                                               ; preds = %32
  %36 = load ptr, ptr %9, align 8, !tbaa !8
  call void @MOZ_Z_gz_error(ptr noundef %36, i32 noundef -3, ptr noundef @.str)
  store i32 0, ptr %4, align 4
  store i32 1, ptr %11, align 4
  br label %186

37:                                               ; preds = %32
  %38 = load i32, ptr %7, align 4, !tbaa !9
  %39 = icmp eq i32 %38, 0
  br i1 %39, label %40, label %41

40:                                               ; preds = %37
  store i32 0, ptr %4, align 4
  store i32 1, ptr %11, align 4
  br label %186

41:                                               ; preds = %37
  %42 = load ptr, ptr %9, align 8, !tbaa !8
  %43 = getelementptr inbounds nuw %struct.gz_state, ptr %42, i32 0, i32 4
  %44 = load i32, ptr %43, align 8, !tbaa !21
  %45 = icmp eq i32 %44, 0
  br i1 %45, label %46, label %51

46:                                               ; preds = %41
  %47 = load ptr, ptr %9, align 8, !tbaa !8
  %48 = call i32 @gz_init(ptr noundef %47)
  %49 = icmp eq i32 %48, -1
  br i1 %49, label %50, label %51

50:                                               ; preds = %46
  store i32 0, ptr %4, align 4
  store i32 1, ptr %11, align 4
  br label %186

51:                                               ; preds = %46, %41
  %52 = load ptr, ptr %9, align 8, !tbaa !8
  %53 = getelementptr inbounds nuw %struct.gz_state, ptr %52, i32 0, i32 16
  %54 = load i32, ptr %53, align 8, !tbaa !22
  %55 = icmp ne i32 %54, 0
  br i1 %55, label %56, label %67

56:                                               ; preds = %51
  %57 = load ptr, ptr %9, align 8, !tbaa !8
  %58 = getelementptr inbounds nuw %struct.gz_state, ptr %57, i32 0, i32 16
  store i32 0, ptr %58, align 8, !tbaa !22
  %59 = load ptr, ptr %9, align 8, !tbaa !8
  %60 = load ptr, ptr %9, align 8, !tbaa !8
  %61 = getelementptr inbounds nuw %struct.gz_state, ptr %60, i32 0, i32 15
  %62 = load i64, ptr %61, align 8, !tbaa !23
  %63 = call i32 @gz_zero(ptr noundef %59, i64 noundef %62)
  %64 = icmp eq i32 %63, -1
  br i1 %64, label %65, label %66

65:                                               ; preds = %56
  store i32 0, ptr %4, align 4
  store i32 1, ptr %11, align 4
  br label %186

66:                                               ; preds = %56
  br label %67

67:                                               ; preds = %66, %51
  %68 = load i32, ptr %7, align 4, !tbaa !9
  %69 = load ptr, ptr %9, align 8, !tbaa !8
  %70 = getelementptr inbounds nuw %struct.gz_state, ptr %69, i32 0, i32 4
  %71 = load i32, ptr %70, align 8, !tbaa !21
  %72 = icmp ult i32 %68, %71
  br i1 %72, label %73, label %155

73:                                               ; preds = %67
  br label %74

74:                                               ; preds = %151, %73
  call void @llvm.lifetime.start.p0(i64 4, ptr %12) #10
  call void @llvm.lifetime.start.p0(i64 4, ptr %13) #10
  %75 = load ptr, ptr %10, align 8, !tbaa !11
  %76 = getelementptr inbounds nuw %struct.z_stream_s, ptr %75, i32 0, i32 1
  %77 = load i32, ptr %76, align 8, !tbaa !24
  %78 = icmp eq i32 %77, 0
  br i1 %78, label %79, label %85

79:                                               ; preds = %74
  %80 = load ptr, ptr %9, align 8, !tbaa !8
  %81 = getelementptr inbounds nuw %struct.gz_state, ptr %80, i32 0, i32 6
  %82 = load ptr, ptr %81, align 8, !tbaa !25
  %83 = load ptr, ptr %10, align 8, !tbaa !11
  %84 = getelementptr inbounds nuw %struct.z_stream_s, ptr %83, i32 0, i32 0
  store ptr %82, ptr %84, align 8, !tbaa !26
  br label %85

85:                                               ; preds = %79, %74
  %86 = load ptr, ptr %10, align 8, !tbaa !11
  %87 = getelementptr inbounds nuw %struct.z_stream_s, ptr %86, i32 0, i32 0
  %88 = load ptr, ptr %87, align 8, !tbaa !26
  %89 = load ptr, ptr %10, align 8, !tbaa !11
  %90 = getelementptr inbounds nuw %struct.z_stream_s, ptr %89, i32 0, i32 1
  %91 = load i32, ptr %90, align 8, !tbaa !24
  %92 = zext i32 %91 to i64
  %93 = getelementptr inbounds nuw i8, ptr %88, i64 %92
  %94 = load ptr, ptr %9, align 8, !tbaa !8
  %95 = getelementptr inbounds nuw %struct.gz_state, ptr %94, i32 0, i32 6
  %96 = load ptr, ptr %95, align 8, !tbaa !25
  %97 = ptrtoint ptr %93 to i64
  %98 = ptrtoint ptr %96 to i64
  %99 = sub i64 %97, %98
  %100 = trunc i64 %99 to i32
  store i32 %100, ptr %12, align 4, !tbaa !9
  %101 = load ptr, ptr %9, align 8, !tbaa !8
  %102 = getelementptr inbounds nuw %struct.gz_state, ptr %101, i32 0, i32 4
  %103 = load i32, ptr %102, align 8, !tbaa !21
  %104 = load i32, ptr %12, align 4, !tbaa !9
  %105 = sub i32 %103, %104
  store i32 %105, ptr %13, align 4, !tbaa !9
  %106 = load i32, ptr %13, align 4, !tbaa !9
  %107 = load i32, ptr %7, align 4, !tbaa !9
  %108 = icmp ugt i32 %106, %107
  br i1 %108, label %109, label %111

109:                                              ; preds = %85
  %110 = load i32, ptr %7, align 4, !tbaa !9
  store i32 %110, ptr %13, align 4, !tbaa !9
  br label %111

111:                                              ; preds = %109, %85
  %112 = load ptr, ptr %9, align 8, !tbaa !8
  %113 = getelementptr inbounds nuw %struct.gz_state, ptr %112, i32 0, i32 6
  %114 = load ptr, ptr %113, align 8, !tbaa !25
  %115 = load i32, ptr %12, align 4, !tbaa !9
  %116 = zext i32 %115 to i64
  %117 = getelementptr inbounds nuw i8, ptr %114, i64 %116
  %118 = load ptr, ptr %6, align 8, !tbaa !8
  %119 = load i32, ptr %13, align 4, !tbaa !9
  %120 = zext i32 %119 to i64
  call void @llvm.memcpy.p0.p0.i64(ptr align 1 %117, ptr align 1 %118, i64 %120, i1 false)
  %121 = load i32, ptr %13, align 4, !tbaa !9
  %122 = load ptr, ptr %10, align 8, !tbaa !11
  %123 = getelementptr inbounds nuw %struct.z_stream_s, ptr %122, i32 0, i32 1
  %124 = load i32, ptr %123, align 8, !tbaa !24
  %125 = add i32 %124, %121
  store i32 %125, ptr %123, align 8, !tbaa !24
  %126 = load i32, ptr %13, align 4, !tbaa !9
  %127 = zext i32 %126 to i64
  %128 = load ptr, ptr %9, align 8, !tbaa !8
  %129 = getelementptr inbounds nuw %struct.gz_state, ptr %128, i32 0, i32 0
  %130 = getelementptr inbounds nuw %struct.gzFile_s, ptr %129, i32 0, i32 2
  %131 = load i64, ptr %130, align 8, !tbaa !27
  %132 = add nsw i64 %131, %127
  store i64 %132, ptr %130, align 8, !tbaa !27
  %133 = load ptr, ptr %6, align 8, !tbaa !8
  %134 = load i32, ptr %13, align 4, !tbaa !9
  %135 = zext i32 %134 to i64
  %136 = getelementptr inbounds nuw i8, ptr %133, i64 %135
  store ptr %136, ptr %6, align 8, !tbaa !8
  %137 = load i32, ptr %13, align 4, !tbaa !9
  %138 = load i32, ptr %7, align 4, !tbaa !9
  %139 = sub i32 %138, %137
  store i32 %139, ptr %7, align 4, !tbaa !9
  %140 = load i32, ptr %7, align 4, !tbaa !9
  %141 = icmp ne i32 %140, 0
  br i1 %141, label %142, label %147

142:                                              ; preds = %111
  %143 = load ptr, ptr %9, align 8, !tbaa !8
  %144 = call i32 @gz_comp(ptr noundef %143, i32 noundef 0)
  %145 = icmp eq i32 %144, -1
  br i1 %145, label %146, label %147

146:                                              ; preds = %142
  store i32 0, ptr %4, align 4
  store i32 1, ptr %11, align 4
  br label %148

147:                                              ; preds = %142, %111
  store i32 0, ptr %11, align 4
  br label %148

148:                                              ; preds = %147, %146
  call void @llvm.lifetime.end.p0(i64 4, ptr %13) #10
  call void @llvm.lifetime.end.p0(i64 4, ptr %12) #10
  %149 = load i32, ptr %11, align 4
  switch i32 %149, label %186 [
    i32 0, label %150
  ]

150:                                              ; preds = %148
  br label %151

151:                                              ; preds = %150
  %152 = load i32, ptr %7, align 4, !tbaa !9
  %153 = icmp ne i32 %152, 0
  br i1 %153, label %74, label %154, !llvm.loop !28

154:                                              ; preds = %151
  br label %184

155:                                              ; preds = %67
  %156 = load ptr, ptr %10, align 8, !tbaa !11
  %157 = getelementptr inbounds nuw %struct.z_stream_s, ptr %156, i32 0, i32 1
  %158 = load i32, ptr %157, align 8, !tbaa !24
  %159 = icmp ne i32 %158, 0
  br i1 %159, label %160, label %165

160:                                              ; preds = %155
  %161 = load ptr, ptr %9, align 8, !tbaa !8
  %162 = call i32 @gz_comp(ptr noundef %161, i32 noundef 0)
  %163 = icmp eq i32 %162, -1
  br i1 %163, label %164, label %165

164:                                              ; preds = %160
  store i32 0, ptr %4, align 4
  store i32 1, ptr %11, align 4
  br label %186

165:                                              ; preds = %160, %155
  %166 = load i32, ptr %7, align 4, !tbaa !9
  %167 = load ptr, ptr %10, align 8, !tbaa !11
  %168 = getelementptr inbounds nuw %struct.z_stream_s, ptr %167, i32 0, i32 1
  store i32 %166, ptr %168, align 8, !tbaa !24
  %169 = load ptr, ptr %6, align 8, !tbaa !8
  %170 = load ptr, ptr %10, align 8, !tbaa !11
  %171 = getelementptr inbounds nuw %struct.z_stream_s, ptr %170, i32 0, i32 0
  store ptr %169, ptr %171, align 8, !tbaa !26
  %172 = load i32, ptr %7, align 4, !tbaa !9
  %173 = zext i32 %172 to i64
  %174 = load ptr, ptr %9, align 8, !tbaa !8
  %175 = getelementptr inbounds nuw %struct.gz_state, ptr %174, i32 0, i32 0
  %176 = getelementptr inbounds nuw %struct.gzFile_s, ptr %175, i32 0, i32 2
  %177 = load i64, ptr %176, align 8, !tbaa !27
  %178 = add nsw i64 %177, %173
  store i64 %178, ptr %176, align 8, !tbaa !27
  %179 = load ptr, ptr %9, align 8, !tbaa !8
  %180 = call i32 @gz_comp(ptr noundef %179, i32 noundef 0)
  %181 = icmp eq i32 %180, -1
  br i1 %181, label %182, label %183

182:                                              ; preds = %165
  store i32 0, ptr %4, align 4
  store i32 1, ptr %11, align 4
  br label %186

183:                                              ; preds = %165
  br label %184

184:                                              ; preds = %183, %154
  %185 = load i32, ptr %8, align 4, !tbaa !9
  store i32 %185, ptr %4, align 4
  store i32 1, ptr %11, align 4
  br label %186

186:                                              ; preds = %184, %182, %164, %148, %65, %50, %40, %35, %31, %17
  call void @llvm.lifetime.end.p0(i64 8, ptr %10) #10
  call void @llvm.lifetime.end.p0(i64 8, ptr %9) #10
  call void @llvm.lifetime.end.p0(i64 4, ptr %8) #10
  %187 = load i32, ptr %4, align 4
  ret i32 %187
}