; Function Attrs: nounwind uwtable
define noundef i32 @MOZ_Z_gzwrite(ptr noundef %0, ptr noundef %1, i32 noundef %2) local_unnamed_addr #0 {
  %4 = icmp eq ptr %0, null
  br i1 %4, label %gz_zero.exit.thread, label %5

5:                                                ; preds = %3
  %6 = getelementptr inbounds nuw i8, ptr %0, i64 120
  %7 = getelementptr inbounds nuw i8, ptr %0, i64 24
  %8 = load i32, ptr %7, align 8, !tbaa !3
  %.not = icmp eq i32 %8, 31153
  br i1 %.not, label %9, label %gz_zero.exit.thread

9:                                                ; preds = %5
  %10 = getelementptr inbounds nuw i8, ptr %0, i64 108
  %11 = load i32, ptr %10, align 4, !tbaa !14
  %.not62 = icmp eq i32 %11, 0
  br i1 %.not62, label %12, label %gz_zero.exit.thread

12:                                               ; preds = %9
  %13 = icmp slt i32 %2, 0
  br i1 %13, label %14, label %15

14:                                               ; preds = %12
  tail call void @MOZ_Z_gz_error(ptr noundef nonnull %0, i32 noundef -3, ptr noundef nonnull @.str) #14
  br label %gz_zero.exit.thread

15:                                               ; preds = %12
  %16 = icmp eq i32 %2, 0
  br i1 %16, label %gz_zero.exit.thread, label %17

17:                                               ; preds = %15
  %18 = getelementptr inbounds nuw i8, ptr %0, i64 40
  %19 = load i32, ptr %18, align 8, !tbaa !15
  %20 = icmp eq i32 %19, 0
  br i1 %20, label %21, label %24

21:                                               ; preds = %17
  %22 = tail call fastcc i32 @gz_init(ptr noundef %0)
  %23 = icmp eq i32 %22, -1
  br i1 %23, label %gz_zero.exit.thread, label %24

24:                                               ; preds = %21, %17
  %25 = getelementptr inbounds nuw i8, ptr %0, i64 104
  %26 = load i32, ptr %25, align 8, !tbaa !16
  %.not63 = icmp eq i32 %26, 0
  br i1 %.not63, label %gz_zero.exit, label %27

27:                                               ; preds = %24
  store i32 0, ptr %25, align 8, !tbaa !16
  %28 = getelementptr inbounds nuw i8, ptr %0, i64 96
  %29 = load i64, ptr %28, align 8, !tbaa !17
  %30 = getelementptr inbounds nuw i8, ptr %0, i64 128
  %31 = load i32, ptr %30, align 8, !tbaa !18
  %.not.i = icmp eq i32 %31, 0
  br i1 %.not.i, label %35, label %32

32:                                               ; preds = %27
  %33 = tail call fastcc i32 @gz_comp(ptr noundef nonnull %0, i32 noundef 0)
  %34 = icmp eq i32 %33, -1
  br i1 %34, label %gz_zero.exit.thread, label %35

35:                                               ; preds = %32, %27
  %.not2224.i = icmp eq i64 %29, 0
  br i1 %.not2224.i, label %gz_zero.exit, label %.lr.ph.i

.lr.ph.i:                                         ; preds = %35
  %36 = getelementptr inbounds nuw i8, ptr %0, i64 48
  %37 = getelementptr inbounds nuw i8, ptr %0, i64 16
  br label %40

38:                                               ; preds = %48
  %39 = sub nsw i64 %.02026.i, %.pre-phi.i
  %.not22.i = icmp eq i64 %39, 0
  br i1 %.not22.i, label %gz_zero.exit, label %40, !llvm.loop !19

40:                                               ; preds = %38, %.lr.ph.i
  %.02026.i = phi i64 [ %29, %.lr.ph.i ], [ %39, %38 ]
  %.not2325.i = phi i1 [ false, %.lr.ph.i ], [ true, %38 ]
  %41 = load i32, ptr %18, align 8, !tbaa !15
  %42 = zext i32 %41 to i64
  %43 = tail call i64 @llvm.smin.i64(i64 %.02026.i, i64 %42)
  %44 = trunc i64 %43 to i32
  br i1 %.not2325.i, label %._crit_edge.i, label %45

._crit_edge.i:                                    ; preds = %40
  %.pre.i = and i64 %43, 4294967295
  br label %48

45:                                               ; preds = %40
  %46 = load ptr, ptr %36, align 8, !tbaa !21
  %47 = and i64 %43, 4294967295
  tail call void @llvm.memset.p0.i64(ptr align 1 %46, i8 0, i64 %47, i1 false)
  br label %48

48:                                               ; preds = %45, %._crit_edge.i
  %.pre-phi.i = phi i64 [ %.pre.i, %._crit_edge.i ], [ %47, %45 ]
  store i32 %44, ptr %30, align 8, !tbaa !18
  %49 = load ptr, ptr %36, align 8, !tbaa !21
  store ptr %49, ptr %6, align 8, !tbaa !22
  %50 = load i64, ptr %37, align 8, !tbaa !23
  %51 = add nsw i64 %50, %.pre-phi.i
  store i64 %51, ptr %37, align 8, !tbaa !23
  %52 = tail call fastcc i32 @gz_comp(ptr noundef nonnull %0, i32 noundef 0)
  %53 = icmp eq i32 %52, -1
  br i1 %53, label %gz_zero.exit.thread, label %38

gz_zero.exit:                                     ; preds = %38, %35, %24
  %54 = load i32, ptr %18, align 8, !tbaa !15
  %55 = icmp ult i32 %2, %54
  %56 = getelementptr inbounds nuw i8, ptr %0, i64 128
  br i1 %55, label %.critedge.preheader, label %86

.critedge.preheader:                              ; preds = %gz_zero.exit
  %57 = getelementptr inbounds nuw i8, ptr %0, i64 48
  %58 = getelementptr inbounds nuw i8, ptr %0, i64 16
  br label %.critedge

.critedge:                                        ; preds = %.critedge.preheader, %82
  %.057 = phi i32 [ %81, %82 ], [ %2, %.critedge.preheader ]
  %.056 = phi ptr [ %83, %82 ], [ %1, %.critedge.preheader ]
  %59 = load i32, ptr %56, align 8, !tbaa !18
  %60 = icmp eq i32 %59, 0
  br i1 %60, label %61, label %.critedge._crit_edge

.critedge._crit_edge:                             ; preds = %.critedge
  %.pre = load ptr, ptr %6, align 8, !tbaa !22
  %.pre70 = load ptr, ptr %57, align 8, !tbaa !21
  br label %63

61:                                               ; preds = %.critedge
  %62 = load ptr, ptr %57, align 8, !tbaa !21
  store ptr %62, ptr %6, align 8, !tbaa !22
  br label %63

63:                                               ; preds = %.critedge._crit_edge, %61
  %64 = phi ptr [ %.pre70, %.critedge._crit_edge ], [ %62, %61 ]
  %65 = phi ptr [ %.pre, %.critedge._crit_edge ], [ %62, %61 ]
  %66 = zext i32 %59 to i64
  %67 = getelementptr inbounds nuw i8, ptr %65, i64 %66
  %68 = ptrtoint ptr %67 to i64
  %69 = ptrtoint ptr %64 to i64
  %70 = sub i64 %68, %69
  %71 = trunc i64 %70 to i32
  %72 = load i32, ptr %18, align 8, !tbaa !15
  %73 = sub i32 %72, %71
  %spec.select = tail call i32 @llvm.umin.i32(i32 %73, i32 %.057)
  %74 = and i64 %70, 4294967295
  %75 = getelementptr inbounds nuw i8, ptr %64, i64 %74
  %76 = zext i32 %spec.select to i64
  tail call void @llvm.memcpy.p0.p0.i64(ptr align 1 %75, ptr align 1 %.056, i64 %76, i1 false)
  %77 = load i32, ptr %56, align 8, !tbaa !18
  %78 = add i32 %spec.select, %77
  store i32 %78, ptr %56, align 8, !tbaa !18
  %79 = load i64, ptr %58, align 8, !tbaa !23
  %80 = add nsw i64 %79, %76
  store i64 %80, ptr %58, align 8, !tbaa !23
  %81 = sub i32 %.057, %spec.select
  %.not65 = icmp eq i32 %81, 0
  br i1 %.not65, label %.critedge66, label %82

82:                                               ; preds = %63
  %83 = getelementptr inbounds nuw i8, ptr %.056, i64 %76
  %84 = tail call fastcc i32 @gz_comp(ptr noundef %0, i32 noundef 0)
  %85 = icmp eq i32 %84, -1
  br i1 %85, label %gz_zero.exit.thread, label %.critedge, !llvm.loop !24

86:                                               ; preds = %gz_zero.exit
  %87 = load i32, ptr %56, align 8, !tbaa !18
  %.not64 = icmp eq i32 %87, 0
  br i1 %.not64, label %91, label %88

88:                                               ; preds = %86
  %89 = tail call fastcc i32 @gz_comp(ptr noundef %0, i32 noundef 0)
  %90 = icmp eq i32 %89, -1
  br i1 %90, label %gz_zero.exit.thread, label %91

91:                                               ; preds = %88, %86
  store i32 %2, ptr %56, align 8, !tbaa !18
  store ptr %1, ptr %6, align 8, !tbaa !22
  %92 = zext nneg i32 %2 to i64
  %93 = getelementptr inbounds nuw i8, ptr %0, i64 16
  %94 = load i64, ptr %93, align 8, !tbaa !23
  %95 = add nsw i64 %94, %92
  store i64 %95, ptr %93, align 8, !tbaa !23
  %96 = tail call fastcc i32 @gz_comp(ptr noundef %0, i32 noundef 0)
  %97 = icmp eq i32 %96, -1
  br i1 %97, label %gz_zero.exit.thread, label %.critedge66

.critedge66:                                      ; preds = %63, %91
  br label %gz_zero.exit.thread

gz_zero.exit.thread:                              ; preds = %48, %82, %32, %91, %88, %21, %15, %5, %9, %3, %.critedge66, %14
  %.054 = phi i32 [ 0, %14 ], [ %2, %.critedge66 ], [ 0, %3 ], [ 0, %9 ], [ 0, %5 ], [ 0, %15 ], [ 0, %21 ], [ 0, %88 ], [ 0, %91 ], [ 0, %32 ], [ 0, %82 ], [ 0, %48 ]
  ret i32 %.054
}